; Function Attrs: nounwind uwtable
define noalias noundef ptr @Gia_ManMulFindB(ptr noundef %0, ptr noundef readonly captures(none) %1, ptr noundef readonly captures(none) %2, i32 noundef %3) local_unnamed_addr #0 {
  %5 = tail call noalias dereferenceable_or_null(16) ptr @malloc(i64 noundef 16) #21
  %6 = getelementptr inbounds nuw i8, ptr %5, i64 4
  store i32 0, ptr %6, align 4, !tbaa !36
  store i32 12, ptr %5, align 8, !tbaa !38
  %7 = tail call noalias dereferenceable_or_null(192) ptr @calloc(i64 noundef 12, i64 noundef 16) #22
  %8 = getelementptr inbounds nuw i8, ptr %5, i64 8
  store ptr %7, ptr %8, align 8, !tbaa !39
  %9 = getelementptr i8, ptr %1, i64 4
  %.val12 = load i32, ptr %9, align 4, !tbaa !36
  %.not = icmp eq i32 %.val12, 0
  br i1 %.not, label %.thread, label %10

10:                                               ; preds = %4
  %11 = getelementptr i8, ptr %2, i64 4
  %.val = load i32, ptr %11, align 4, !tbaa !36
  %.not10 = icmp eq i32 %.val, 0
  br i1 %.not10, label %.thread, label %12

12:                                               ; preds = %10
  %13 = tail call ptr @Gia_ManMulFindBInputs2(ptr poison, ptr noundef nonnull %1, ptr noundef nonnull %2, i32 poison)
  %.phi.trans.insert = getelementptr i8, ptr %13, i64 4
  %.0.val.pre = load i32, ptr %.phi.trans.insert, align 4, !tbaa !36
  %14 = icmp eq i32 %.0.val.pre, 0
  br i1 %14, label %.thread, label %15

15:                                               ; preds = %12
  tail call void @Gia_ManMulFindOutputs(ptr noundef %0, ptr noundef nonnull %13, i32 poison)
  br label %.thread

.thread:                                          ; preds = %4, %10, %15, %12
  %.016 = phi ptr [ %13, %15 ], [ %13, %12 ], [ %5, %10 ], [ %5, %4 ]
  ret ptr %.016
}